target datalayout = "e-m:e-p270:32:32-p271:32:32-p272:64:64-i64:64-i128:128-f80:128-n8:16:32:64-S128"
target triple = "x86_64-pc-linux-gnu"

%"class.std::__shared_count" = type { ptr }
%"class.cv::VideoWriter" = type { ptr, %"struct.cv::Ptr.34", %"struct.cv::Ptr.38" }
%"struct.cv::Ptr.34" = type { %"class.std::shared_ptr.35" }
%"class.std::shared_ptr.35" = type { %"class.std::__shared_ptr.36" }
%"class.std::__shared_ptr.36" = type { ptr, %"class.std::__shared_count" }
%"struct.cv::Ptr.38" = type { %"class.std::shared_ptr.39" }
%"class.std::shared_ptr.39" = type { %"class.std::__shared_ptr.40" }
%"class.std::__shared_ptr.40" = type { ptr, %"class.std::__shared_count" }

; Function Attrs: mustprogress nounwind uwtable
define linkonce_odr hidden noundef ptr @_ZNKSt12__shared_ptrIN2cv12IVideoWriterELN9__gnu_cxx12_Lock_policyE2EE3getEv(ptr noundef nonnull align 8 dereferenceable(16) %0) #5 comdat align 2 {
  %2 = alloca ptr, align 8
  store ptr %0, ptr %2, align 8, !tbaa !169
  %3 = load ptr, ptr %2, align 8
  %4 = getelementptr inbounds nuw %"class.std::__shared_ptr.40", ptr %3, i32 0, i32 0
  %5 = load ptr, ptr %4, align 8, !tbaa !171
  ret ptr %5
}

; Function Attrs: inlinehint mustprogress nounwind uwtable
define linkonce_odr hidden noundef zeroext i1 @_ZNK2cv3PtrINS_12IVideoWriterEE5emptyEv(ptr noundef nonnull align 8 dereferenceable(16) %0) #7 comdat align 2 {
  %2 = alloca ptr, align 8
  store ptr %0, ptr %2, align 8, !tbaa !132
  %3 = load ptr, ptr %2, align 8
  %4 = call noundef ptr @_ZNKSt12__shared_ptrIN2cv12IVideoWriterELN9__gnu_cxx12_Lock_policyE2EE3getEv(ptr noundef nonnull align 8 dereferenceable(16) %3) #3
  %5 = icmp eq ptr %4, null
  ret i1 %5
}

; Function Attrs: mustprogress nounwind uwtable
define linkonce_odr hidden noundef ptr @_ZNK2cv3PtrINS_12IVideoWriterEEptEv(ptr noundef nonnull align 8 dereferenceable(16) %0) #5 comdat align 2 {
  %2 = alloca ptr, align 8
  store ptr %0, ptr %2, align 8, !tbaa !132
  %3 = load ptr, ptr %2, align 8
  %4 = call noundef ptr @_ZNKSt12__shared_ptrIN2cv12IVideoWriterELN9__gnu_cxx12_Lock_policyE2EE3getEv(ptr noundef nonnull align 8 dereferenceable(16) %3) #3
  ret ptr %4
}

; Function Attrs: mustprogress nounwind uwtable
define linkonce_odr hidden noundef zeroext i1 @_ZNKSt12__shared_ptrIN2cv12IVideoWriterELN9__gnu_cxx12_Lock_policyE2EEcvbEv(ptr noundef nonnull align 8 dereferenceable(16) %0) #5 comdat align 2 {
  %2 = alloca ptr, align 8
  store ptr %0, ptr %2, align 8, !tbaa !169
  %3 = load ptr, ptr %2, align 8
  %4 = getelementptr inbounds nuw %"class.std::__shared_ptr.40", ptr %3, i32 0, i32 0
  %5 = load ptr, ptr %4, align 8, !tbaa !171
  %6 = icmp ne ptr %5, null
  ret i1 %6
}

; Function Attrs: mustprogress uwtable
define noundef double @_ZNK2cv11VideoWriter3getEi(ptr noundef nonnull align 8 dereferenceable(40) %0, i32 noundef %1) unnamed_addr #4 align 2 {
  %3 = alloca double, align 8
  %4 = alloca ptr, align 8
  %5 = alloca i32, align 4
  %6 = alloca i32, align 4
  store ptr %0, ptr %4, align 8, !tbaa !128
  store i32 %1, ptr %5, align 4, !tbaa !39
  %7 = load ptr, ptr %4, align 8
  %8 = load i32, ptr %5, align 4, !tbaa !39
  %9 = icmp eq i32 %8, 42
  br i1 %9, label %10, label %29

10:                                               ; preds = %2
  call void @llvm.lifetime.start.p0(i64 4, ptr %6) #3
  store i32 0, ptr %6, align 4, !tbaa !39
  %11 = getelementptr inbounds nuw %"class.cv::VideoWriter", ptr %7, i32 0, i32 2
  %12 = call noundef zeroext i1 @_ZNKSt12__shared_ptrIN2cv12IVideoWriterELN9__gnu_cxx12_Lock_policyE2EEcvbEv(ptr noundef nonnull align 8 dereferenceable(16) %11) #3
  br i1 %12, label %13, label %20

13:                                               ; preds = %10
  %14 = getelementptr inbounds nuw %"class.cv::VideoWriter", ptr %7, i32 0, i32 2
  %15 = call noundef ptr @_ZNK2cv3PtrINS_12IVideoWriterEEptEv(ptr noundef nonnull align 8 dereferenceable(16) %14) #3
  %16 = load ptr, ptr %15, align 8, !tbaa !20
  %17 = getelementptr inbounds ptr, ptr %16, i64 6
  %18 = load ptr, ptr %17, align 8
  %19 = call noundef i32 %18(ptr noundef nonnull align 8 dereferenceable(8) %15)
  store i32 %19, ptr %6, align 4, !tbaa !39
  br label %20

20:                                               ; preds = %13, %10
  %21 = load i32, ptr %6, align 4, !tbaa !39
  %22 = icmp sle i32 %21, 0
  br i1 %22, label %23, label %24

23:                                               ; preds = %20
  br label %27

24:                                               ; preds = %20
  %25 = load i32, ptr %6, align 4, !tbaa !39
  %26 = sitofp i32 %25 to double
  br label %27

27:                                               ; preds = %24, %23
  %28 = phi double [ -1.000000e+00, %23 ], [ %26, %24 ]
  store double %28, ptr %3, align 8
  call void @llvm.lifetime.end.p0(i64 4, ptr %6) #3
  br label %41

29:                                               ; preds = %2
  %30 = getelementptr inbounds nuw %"class.cv::VideoWriter", ptr %7, i32 0, i32 2
  %31 = call noundef zeroext i1 @_ZNK2cv3PtrINS_12IVideoWriterEE5emptyEv(ptr noundef nonnull align 8 dereferenceable(16) %30)
  br i1 %31, label %40, label %32

32:                                               ; preds = %29
  %33 = getelementptr inbounds nuw %"class.cv::VideoWriter", ptr %7, i32 0, i32 2
  %34 = call noundef ptr @_ZNK2cv3PtrINS_12IVideoWriterEEptEv(ptr noundef nonnull align 8 dereferenceable(16) %33) #3
  %35 = load i32, ptr %5, align 4, !tbaa !39
  %36 = load ptr, ptr %34, align 8, !tbaa !20
  %37 = getelementptr inbounds ptr, ptr %36, i64 2
  %38 = load ptr, ptr %37, align 8
  %39 = call noundef double %38(ptr noundef nonnull align 8 dereferenceable(8) %34, i32 noundef %35)
  store double %39, ptr %3, align 8
  br label %41

40:                                               ; preds = %29
  store double 0.000000e+00, ptr %3, align 8
  br label %41

41:                                               ; preds = %40, %32, %27
  %42 = load double, ptr %3, align 8
  ret double %42
}