; Function Attrs: mustprogress uwtable
define noundef double @_ZNK2cv11VideoWriter3getEi(ptr noundef nonnull readonly align 8 captures(none) dereferenceable(40) %0, i32 noundef %1) unnamed_addr #3 align 2 {
  %3 = icmp eq i32 %1, 42
  %4 = getelementptr inbounds nuw i8, ptr %0, i64 24
  %5 = load ptr, ptr %4, align 8, !tbaa !289
  %.not = icmp eq ptr %5, null
  br i1 %3, label %6, label %14

6:                                                ; preds = %2
  br i1 %.not, label %.thread, label %7

7:                                                ; preds = %6
  %8 = load ptr, ptr %5, align 8, !tbaa !10
  %9 = getelementptr inbounds nuw i8, ptr %8, i64 48
  %10 = load ptr, ptr %9, align 8
  %11 = tail call noundef i32 %10(ptr noundef nonnull align 8 dereferenceable(8) %5)
  %12 = icmp slt i32 %11, 1
  %13 = uitofp nneg i32 %11 to double
  br i1 %12, label %.thread, label %20

.thread:                                          ; preds = %6, %7
  br label %20

14:                                               ; preds = %2
  br i1 %.not, label %20, label %15

15:                                               ; preds = %14
  %16 = load ptr, ptr %5, align 8, !tbaa !10
  %17 = getelementptr inbounds nuw i8, ptr %16, i64 16
  %18 = load ptr, ptr %17, align 8
  %19 = tail call noundef double %18(ptr noundef nonnull align 8 dereferenceable(8) %5, i32 noundef %1)
  br label %20

20:                                               ; preds = %.thread, %7, %14, %15
  %.05 = phi double [ %19, %15 ], [ 0.000000e+00, %14 ], [ -1.000000e+00, %.thread ], [ %13, %7 ]
  ret double %.05
}